target datalayout = "e-m:e-p270:32:32-p271:32:32-p272:64:64-i64:64-i128:128-f80:128-n8:16:32:64-S128"
target triple = "x86_64-pc-linux-gnu"

%struct.ADPCMChannelStatus = type { i32, i16, i32, i32, i32, i32, i32, i32, i32 }
%struct.AVCodecContext = type { ptr, i32, i32, ptr, i32, i32, ptr, ptr, ptr, i64, i32, i32, ptr, i32, %struct.AVRational, %struct.AVRational, %struct.AVRational, i32, i32, i32, i32, i32, %struct.AVRational, i32, i32, i32, i32, i32, i32, i32, i32, i32, i32, i32, ptr, ptr, i32, float, float, float, float, float, float, float, float, float, i32, i32, i32, i32, i32, i32, i32, i32, i32, i32, i32, i32, ptr, ptr, ptr, i32, i32, i32, i32, i32, i32, i32, i32, i32, i32, %struct.AVChannelLayout, i32, i32, i32, i32, i32, i32, i32, i32, ptr, i32, i32, i32, float, float, i32, i32, i32, i32, i32, ptr, i64, i64, float, float, i32, i32, ptr, ptr, i32, i32, i32, i32, i32, ptr, ptr, ptr, ptr, i32, i32, [8 x i64], i32, i32, i32, i32, i32, i32, i32, ptr, ptr, i32, i32, i32, i32, i32, i32, i32, i32, i32, i32, ptr, ptr, i32, i32, ptr, ptr, ptr, ptr, i32, i32, i64, i32, i32, i64, ptr, i64, ptr, i32, ptr, i32 }
%struct.AVRational = type { i32, i32 }
%struct.AVChannelLayout = type { i32, i32, %union.anon.1, ptr }
%union.anon.1 = type { i64 }
%struct.AVCodec = type { ptr, ptr, i32, i32, i32, i8, ptr, ptr, ptr, ptr, ptr, ptr, ptr, ptr }
%struct.ADPCMDecodeContext = type { [14 x %struct.ADPCMChannelStatus], i32, i32 }

@.str.96 = private unnamed_addr constant [17 x i8] c"channel count %d\00", align 1
@.str.97 = private unnamed_addr constant [28 x i8] c"Invalid number of channels\0A\00", align 1

; Function Attrs: cold nounwind optsize uwtable
define internal i32 @adpcm_decode_init(ptr noundef %0) #4 {
  %2 = alloca i32, align 4
  %3 = alloca ptr, align 8
  %4 = alloca ptr, align 8
  %5 = alloca i32, align 4
  %6 = alloca i32, align 4
  %7 = alloca i32, align 4
  store ptr %0, ptr %3, align 8, !tbaa !16
  call void @llvm.lifetime.start.p0(i64 8, ptr %4) #11
  %8 = load ptr, ptr %3, align 8, !tbaa !16
  %9 = getelementptr inbounds nuw %struct.AVCodecContext, ptr %8, i32 0, i32 6
  %10 = load ptr, ptr %9, align 8, !tbaa !18
  store ptr %10, ptr %4, align 8, !tbaa !37
  call void @llvm.lifetime.start.p0(i64 4, ptr %5) #11
  store i32 1, ptr %5, align 4, !tbaa !9
  call void @llvm.lifetime.start.p0(i64 4, ptr %6) #11
  store i32 2, ptr %6, align 4, !tbaa !9
  %11 = load ptr, ptr %3, align 8, !tbaa !16
  call void @adpcm_flush(ptr noundef %11)
  %12 = load ptr, ptr %3, align 8, !tbaa !16
  %13 = getelementptr inbounds nuw %struct.AVCodecContext, ptr %12, i32 0, i32 3
  %14 = load ptr, ptr %13, align 8, !tbaa !39
  %15 = getelementptr inbounds nuw %struct.AVCodec, ptr %14, i32 0, i32 3
  %16 = load i32, ptr %15, align 4, !tbaa !40
  switch i32 %16, label %54 [
    i32 69651, label %17
    i32 69663, label %18
    i32 69652, label %18
    i32 69654, label %18
    i32 69653, label %18
    i32 69657, label %18
    i32 69638, label %18
    i32 69672, label %19
    i32 69665, label %33
    i32 69669, label %34
    i32 69671, label %53
    i32 69650, label %53
    i32 69668, label %53
  ]

17:                                               ; preds = %1
  store i32 1, ptr %6, align 4, !tbaa !9
  br label %54

18:                                               ; preds = %1, %1, %1, %1, %1, %1
  store i32 6, ptr %6, align 4, !tbaa !9
  br label %54

19:                                               ; preds = %1
  store i32 2, ptr %5, align 4, !tbaa !9
  store i32 8, ptr %6, align 4, !tbaa !9
  %20 = load ptr, ptr %3, align 8, !tbaa !16
  %21 = getelementptr inbounds nuw %struct.AVCodecContext, ptr %20, i32 0, i32 71
  %22 = getelementptr inbounds nuw %struct.AVChannelLayout, ptr %21, i32 0, i32 1
  %23 = load i32, ptr %22, align 4, !tbaa !45
  %24 = and i32 %23, 1
  %25 = icmp ne i32 %24, 0
  br i1 %25, label %26, label %32

26:                                               ; preds = %19
  %27 = load ptr, ptr %3, align 8, !tbaa !16
  %28 = load ptr, ptr %3, align 8, !tbaa !16
  %29 = getelementptr inbounds nuw %struct.AVCodecContext, ptr %28, i32 0, i32 71
  %30 = getelementptr inbounds nuw %struct.AVChannelLayout, ptr %29, i32 0, i32 1
  %31 = load i32, ptr %30, align 4, !tbaa !45
  call void (ptr, ptr, ...) @avpriv_request_sample(ptr noundef %27, ptr noundef @.str.96, i32 noundef %31)
  store i32 -1163346256, ptr %2, align 4
  store i32 1, ptr %7, align 4
  br label %150

32:                                               ; preds = %19
  br label %54

33:                                               ; preds = %1
  store i32 2, ptr %5, align 4, !tbaa !9
  br label %54

34:                                               ; preds = %1
  store i32 8, ptr %6, align 4, !tbaa !9
  %35 = load ptr, ptr %3, align 8, !tbaa !16
  %36 = getelementptr inbounds nuw %struct.AVCodecContext, ptr %35, i32 0, i32 71
  %37 = getelementptr inbounds nuw %struct.AVChannelLayout, ptr %36, i32 0, i32 1
  %38 = load i32, ptr %37, align 4, !tbaa !45
  %39 = icmp sle i32 %38, 0
  br i1 %39, label %51, label %40

40:                                               ; preds = %34
  %41 = load ptr, ptr %3, align 8, !tbaa !16
  %42 = getelementptr inbounds nuw %struct.AVCodecContext, ptr %41, i32 0, i32 73
  %43 = load i32, ptr %42, align 4, !tbaa !46
  %44 = load ptr, ptr %3, align 8, !tbaa !16
  %45 = getelementptr inbounds nuw %struct.AVCodecContext, ptr %44, i32 0, i32 71
  %46 = getelementptr inbounds nuw %struct.AVChannelLayout, ptr %45, i32 0, i32 1
  %47 = load i32, ptr %46, align 4, !tbaa !45
  %48 = mul nsw i32 16, %47
  %49 = srem i32 %43, %48
  %50 = icmp ne i32 %49, 0
  br i1 %50, label %51, label %52

51:                                               ; preds = %40, %34
  store i32 -1094995529, ptr %2, align 4
  store i32 1, ptr %7, align 4
  br label %150

52:                                               ; preds = %40
  br label %54

53:                                               ; preds = %1, %1, %1
  store i32 14, ptr %6, align 4, !tbaa !9
  br label %54

54:                                               ; preds = %1, %53, %52, %33, %32, %18, %17
  %55 = load ptr, ptr %3, align 8, !tbaa !16
  %56 = getelementptr inbounds nuw %struct.AVCodecContext, ptr %55, i32 0, i32 71
  %57 = getelementptr inbounds nuw %struct.AVChannelLayout, ptr %56, i32 0, i32 1
  %58 = load i32, ptr %57, align 4, !tbaa !45
  %59 = load i32, ptr %5, align 4, !tbaa !9
  %60 = icmp ult i32 %58, %59
  br i1 %60, label %68, label %61

61:                                               ; preds = %54
  %62 = load ptr, ptr %3, align 8, !tbaa !16
  %63 = getelementptr inbounds nuw %struct.AVCodecContext, ptr %62, i32 0, i32 71
  %64 = getelementptr inbounds nuw %struct.AVChannelLayout, ptr %63, i32 0, i32 1
  %65 = load i32, ptr %64, align 4, !tbaa !45
  %66 = load i32, ptr %6, align 4, !tbaa !9
  %67 = icmp ugt i32 %65, %66
  br i1 %67, label %68, label %70

68:                                               ; preds = %61, %54
  %69 = load ptr, ptr %3, align 8, !tbaa !16
  call void (ptr, i32, ptr, ...) @av_log(ptr noundef %69, i32 noundef 16, ptr noundef @.str.97)
  store i32 -22, ptr %2, align 4
  store i32 1, ptr %7, align 4
  br label %150

70:                                               ; preds = %61
  %71 = load ptr, ptr %3, align 8, !tbaa !16
  %72 = getelementptr inbounds nuw %struct.AVCodecContext, ptr %71, i32 0, i32 3
  %73 = load ptr, ptr %72, align 8, !tbaa !39
  %74 = getelementptr inbounds nuw %struct.AVCodec, ptr %73, i32 0, i32 3
  %75 = load i32, ptr %74, align 4, !tbaa !40
  switch i32 %75, label %119 [
    i32 69633, label %76
    i32 69674, label %88
    i32 69684, label %105
    i32 69676, label %112
  ]

76:                                               ; preds = %70
  %77 = load ptr, ptr %3, align 8, !tbaa !16
  %78 = getelementptr inbounds nuw %struct.AVCodecContext, ptr %77, i32 0, i32 114
  %79 = load i32, ptr %78, align 8, !tbaa !47
  %80 = icmp slt i32 %79, 2
  br i1 %80, label %86, label %81

81:                                               ; preds = %76
  %82 = load ptr, ptr %3, align 8, !tbaa !16
  %83 = getelementptr inbounds nuw %struct.AVCodecContext, ptr %82, i32 0, i32 114
  %84 = load i32, ptr %83, align 8, !tbaa !47
  %85 = icmp sgt i32 %84, 5
  br i1 %85, label %86, label %87

86:                                               ; preds = %81, %76
  store i32 -1094995529, ptr %2, align 4
  store i32 1, ptr %7, align 4
  br label %150

87:                                               ; preds = %81
  br label %120

88:                                               ; preds = %70
  %89 = load ptr, ptr %3, align 8, !tbaa !16
  %90 = getelementptr inbounds nuw %struct.AVCodecContext, ptr %89, i32 0, i32 114
  %91 = load i32, ptr %90, align 8, !tbaa !47
  %92 = icmp ne i32 %91, 4
  br i1 %92, label %103, label %93

93:                                               ; preds = %88
  %94 = load ptr, ptr %3, align 8, !tbaa !16
  %95 = getelementptr inbounds nuw %struct.AVCodecContext, ptr %94, i32 0, i32 73
  %96 = load i32, ptr %95, align 4, !tbaa !46
  %97 = load ptr, ptr %3, align 8, !tbaa !16
  %98 = getelementptr inbounds nuw %struct.AVCodecContext, ptr %97, i32 0, i32 71
  %99 = getelementptr inbounds nuw %struct.AVChannelLayout, ptr %98, i32 0, i32 1
  %100 = load i32, ptr %99, align 4, !tbaa !45
  %101 = mul nsw i32 17, %100
  %102 = icmp ne i32 %96, %101
  br i1 %102, label %103, label %104

103:                                              ; preds = %93, %88
  store i32 -1094995529, ptr %2, align 4
  store i32 1, ptr %7, align 4
  br label %150

104:                                              ; preds = %93
  br label %120

105:                                              ; preds = %70
  %106 = load ptr, ptr %3, align 8, !tbaa !16
  %107 = getelementptr inbounds nuw %struct.AVCodecContext, ptr %106, i32 0, i32 114
  %108 = load i32, ptr %107, align 8, !tbaa !47
  %109 = icmp ne i32 %108, 4
  br i1 %109, label %110, label %111

110:                                              ; preds = %105
  store i32 -1094995529, ptr %2, align 4
  store i32 1, ptr %7, align 4
  br label %150

111:                                              ; preds = %105
  br label %120

112:                                              ; preds = %70
  %113 = load ptr, ptr %3, align 8, !tbaa !16
  %114 = getelementptr inbounds nuw %struct.AVCodecContext, ptr %113, i32 0, i32 114
  %115 = load i32, ptr %114, align 8, !tbaa !47
  %116 = icmp ne i32 %115, 8
  br i1 %116, label %117, label %118

117:                                              ; preds = %112
  store i32 -1094995529, ptr %2, align 4
  store i32 1, ptr %7, align 4
  br label %150

118:                                              ; preds = %112
  br label %120

119:                                              ; preds = %70
  br label %120

120:                                              ; preds = %119, %118, %111, %104, %87
  %121 = load ptr, ptr %3, align 8, !tbaa !16
  %122 = getelementptr inbounds nuw %struct.AVCodecContext, ptr %121, i32 0, i32 3
  %123 = load ptr, ptr %122, align 8, !tbaa !39
  %124 = getelementptr inbounds nuw %struct.AVCodec, ptr %123, i32 0, i32 3
  %125 = load i32, ptr %124, align 4, !tbaa !40
  switch i32 %125, label %146 [
    i32 69670, label %126
    i32 69680, label %126
    i32 69671, label %126
    i32 69632, label %126
    i32 69633, label %126
    i32 69684, label %126
    i32 69639, label %126
    i32 69640, label %126
    i32 69683, label %126
    i32 69652, label %126
    i32 69654, label %126
    i32 69653, label %126
    i32 69657, label %126
    i32 69650, label %126
    i32 69668, label %126
    i32 69663, label %126
    i32 69665, label %126
    i32 69669, label %126
    i32 69672, label %126
    i32 69674, label %126
    i32 69681, label %126
    i32 69636, label %129
    i32 69638, label %137
  ]

126:                                              ; preds = %120, %120, %120, %120, %120, %120, %120, %120, %120, %120, %120, %120, %120, %120, %120, %120, %120, %120, %120, %120, %120
  %127 = load ptr, ptr %3, align 8, !tbaa !16
  %128 = getelementptr inbounds nuw %struct.AVCodecContext, ptr %127, i32 0, i32 70
  store i32 6, ptr %128, align 4, !tbaa !48
  br label %149

129:                                              ; preds = %120
  %130 = load ptr, ptr %4, align 8, !tbaa !37
  %131 = getelementptr inbounds nuw %struct.ADPCMDecodeContext, ptr %130, i32 0, i32 1
  %132 = load i32, ptr %131, align 4, !tbaa !49
  %133 = icmp eq i32 %132, 3
  %134 = select i1 %133, i32 6, i32 1
  %135 = load ptr, ptr %3, align 8, !tbaa !16
  %136 = getelementptr inbounds nuw %struct.AVCodecContext, ptr %135, i32 0, i32 70
  store i32 %134, ptr %136, align 4, !tbaa !48
  br label %149

137:                                              ; preds = %120
  %138 = load ptr, ptr %3, align 8, !tbaa !16
  %139 = getelementptr inbounds nuw %struct.AVCodecContext, ptr %138, i32 0, i32 71
  %140 = getelementptr inbounds nuw %struct.AVChannelLayout, ptr %139, i32 0, i32 1
  %141 = load i32, ptr %140, align 4, !tbaa !45
  %142 = icmp sgt i32 %141, 2
  %143 = select i1 %142, i32 6, i32 1
  %144 = load ptr, ptr %3, align 8, !tbaa !16
  %145 = getelementptr inbounds nuw %struct.AVCodecContext, ptr %144, i32 0, i32 70
  store i32 %143, ptr %145, align 4, !tbaa !48
  br label %149

146:                                              ; preds = %120
  %147 = load ptr, ptr %3, align 8, !tbaa !16
  %148 = getelementptr inbounds nuw %struct.AVCodecContext, ptr %147, i32 0, i32 70
  store i32 1, ptr %148, align 4, !tbaa !48
  br label %149

149:                                              ; preds = %146, %137, %129, %126
  store i32 0, ptr %2, align 4
  store i32 1, ptr %7, align 4
  br label %150

150:                                              ; preds = %149, %117, %110, %103, %86, %68, %51, %26
  call void @llvm.lifetime.end.p0(i64 4, ptr %6) #11
  call void @llvm.lifetime.end.p0(i64 4, ptr %5) #11
  call void @llvm.lifetime.end.p0(i64 8, ptr %4) #11
  %151 = load i32, ptr %2, align 4
  ret i32 %151
}