; Function Attrs: cold nounwind optsize uwtable
define internal range(i32 -1163346256, 1) i32 @adpcm_decode_init(ptr noundef %0) #2 {
  %2 = getelementptr inbounds nuw i8, ptr %0, i64 32
  %3 = load ptr, ptr %2, align 8, !tbaa !11
  tail call void @adpcm_flush(ptr noundef %0)
  %4 = getelementptr inbounds nuw i8, ptr %0, i64 16
  %5 = load ptr, ptr %4, align 8, !tbaa !31
  %6 = getelementptr inbounds nuw i8, ptr %5, i64 20
  %7 = load i32, ptr %6, align 4, !tbaa !32
  switch i32 %7, label %26 [
    i32 69651, label %8
    i32 69663, label %9
    i32 69652, label %9
    i32 69654, label %9
    i32 69653, label %9
    i32 69657, label %9
    i32 69638, label %9
    i32 69672, label %10
    i32 69665, label %15
    i32 69669, label %16
    i32 69671, label %25
    i32 69650, label %25
    i32 69668, label %25
  ]

8:                                                ; preds = %1
  br label %26

9:                                                ; preds = %1, %1, %1, %1, %1, %1
  br label %26

10:                                               ; preds = %1
  %11 = getelementptr inbounds nuw i8, ptr %0, i64 356
  %12 = load i32, ptr %11, align 4, !tbaa !37
  %13 = and i32 %12, 1
  %.not34 = icmp eq i32 %13, 0
  br i1 %.not34, label %26, label %14

14:                                               ; preds = %10
  tail call void (ptr, ptr, ...) @avpriv_request_sample(ptr noundef nonnull %0, ptr noundef nonnull @.str.96, i32 noundef %12) #13
  br label %62

15:                                               ; preds = %1
  br label %26

16:                                               ; preds = %1
  %17 = getelementptr inbounds nuw i8, ptr %0, i64 356
  %18 = load i32, ptr %17, align 4, !tbaa !37
  %19 = icmp slt i32 %18, 1
  br i1 %19, label %62, label %20

20:                                               ; preds = %16
  %21 = getelementptr inbounds nuw i8, ptr %0, i64 380
  %22 = load i32, ptr %21, align 4, !tbaa !38
  %23 = shl nsw i32 %18, 4
  %24 = srem i32 %22, %23
  %.not = icmp eq i32 %24, 0
  br i1 %.not, label %26, label %62

25:                                               ; preds = %1, %1, %1
  br label %26

26:                                               ; preds = %20, %10, %25, %15, %9, %8, %1
  %.029 = phi i32 [ 1, %1 ], [ 1, %25 ], [ 1, %20 ], [ 2, %15 ], [ 2, %10 ], [ 1, %9 ], [ 1, %8 ]
  %.0 = phi i32 [ 2, %1 ], [ 14, %25 ], [ 8, %20 ], [ 2, %15 ], [ 8, %10 ], [ 6, %9 ], [ 1, %8 ]
  %27 = getelementptr inbounds nuw i8, ptr %0, i64 356
  %28 = load i32, ptr %27, align 4, !tbaa !37
  %29 = icmp ult i32 %28, %.029
  %30 = icmp ugt i32 %28, %.0
  %or.cond = or i1 %29, %30
  br i1 %or.cond, label %31, label %32

31:                                               ; preds = %26
  tail call void (ptr, i32, ptr, ...) @av_log(ptr noundef nonnull %0, i32 noundef 16, ptr noundef nonnull @.str.97) #13
  br label %62

32:                                               ; preds = %26
  switch i32 %7, label %.thread40 [
    i32 69633, label %33
    i32 69674, label %37
    i32 69684, label %44
    i32 69676, label %47
    i32 69670, label %.thread
    i32 69680, label %.thread
    i32 69671, label %.thread
    i32 69632, label %.thread
    i32 69681, label %.thread
    i32 69636, label %51
    i32 69639, label %.thread
    i32 69640, label %.thread
    i32 69683, label %.thread
    i32 69652, label %.thread
    i32 69654, label %.thread
    i32 69653, label %.thread
    i32 69657, label %.thread
    i32 69650, label %.thread
    i32 69668, label %.thread
    i32 69663, label %.thread
    i32 69665, label %.thread
    i32 69669, label %.thread
    i32 69672, label %.thread
    i32 69638, label %57
  ]

33:                                               ; preds = %32
  %34 = getelementptr inbounds nuw i8, ptr %0, i64 648
  %35 = load i32, ptr %34, align 8, !tbaa !39
  %36 = add i32 %35, -6
  %or.cond39 = icmp ult i32 %36, -4
  br i1 %or.cond39, label %62, label %.thread

37:                                               ; preds = %32
  %38 = getelementptr inbounds nuw i8, ptr %0, i64 648
  %39 = load i32, ptr %38, align 8, !tbaa !39
  %.not37 = icmp eq i32 %39, 4
  br i1 %.not37, label %40, label %62

40:                                               ; preds = %37
  %41 = getelementptr inbounds nuw i8, ptr %0, i64 380
  %42 = load i32, ptr %41, align 4, !tbaa !38
  %43 = mul nuw nsw i32 %28, 17
  %.not38 = icmp eq i32 %42, %43
  br i1 %.not38, label %.thread, label %62

44:                                               ; preds = %32
  %45 = getelementptr inbounds nuw i8, ptr %0, i64 648
  %46 = load i32, ptr %45, align 8, !tbaa !39
  %.not36 = icmp eq i32 %46, 4
  br i1 %.not36, label %.thread, label %62

47:                                               ; preds = %32
  %48 = getelementptr inbounds nuw i8, ptr %0, i64 648
  %49 = load i32, ptr %48, align 8, !tbaa !39
  %.not35 = icmp eq i32 %49, 8
  br i1 %.not35, label %.thread40, label %62

.thread:                                          ; preds = %32, %32, %32, %32, %32, %32, %32, %32, %32, %32, %32, %32, %32, %32, %32, %32, %32, %32, %40, %44, %33
  %50 = getelementptr inbounds nuw i8, ptr %0, i64 348
  store i32 6, ptr %50, align 4, !tbaa !40
  br label %62

51:                                               ; preds = %32
  %52 = getelementptr inbounds nuw i8, ptr %3, i64 504
  %53 = load i32, ptr %52, align 4, !tbaa !41
  %54 = icmp eq i32 %53, 3
  %55 = select i1 %54, i32 6, i32 1
  %56 = getelementptr inbounds nuw i8, ptr %0, i64 348
  store i32 %55, ptr %56, align 4, !tbaa !40
  br label %62

57:                                               ; preds = %32
  %58 = icmp samesign ugt i32 %28, 2
  %59 = select i1 %58, i32 6, i32 1
  %60 = getelementptr inbounds nuw i8, ptr %0, i64 348
  store i32 %59, ptr %60, align 4, !tbaa !40
  br label %62

.thread40:                                        ; preds = %32, %47
  %61 = getelementptr inbounds nuw i8, ptr %0, i64 348
  store i32 1, ptr %61, align 4, !tbaa !40
  br label %62

62:                                               ; preds = %.thread, %51, %57, %.thread40, %47, %44, %37, %40, %33, %16, %20, %31, %14
  %.030 = phi i32 [ -22, %31 ], [ -1163346256, %14 ], [ -1094995529, %20 ], [ -1094995529, %16 ], [ -1094995529, %33 ], [ -1094995529, %40 ], [ -1094995529, %37 ], [ -1094995529, %44 ], [ -1094995529, %47 ], [ 0, %.thread40 ], [ 0, %57 ], [ 0, %51 ], [ 0, %.thread ]
  ret i32 %.030
}